; Function Attrs: mustprogress nounwind uwtable
define void @_ZNK8proxygen11HTTPMessage14unparseCookiesEv(ptr noundef nonnull align 8 dereferenceable(616) %this) local_unnamed_addr #3 align 2 personality ptr @__gxx_personality_v0 {
entry:
  %cookies_ = getelementptr inbounds i8, ptr %this, i64 384
  %_M_parent.i.i.i.i = getelementptr inbounds i8, ptr %this, i64 400
  %0 = load ptr, ptr %_M_parent.i.i.i.i, align 8
  invoke void @_ZNSt8_Rb_treeIN5folly5RangeIPKcEESt4pairIKS4_S4_ESt10_Select1stIS7_ESt4lessIS4_ESaIS7_EE8_M_eraseEPSt13_Rb_tree_nodeIS7_E(ptr noundef nonnull align 8 dereferenceable(48) %cookies_, ptr noundef %0)
          to label %_ZNSt3mapIN5folly5RangeIPKcEES4_St4lessIS4_ESaISt4pairIKS4_S4_EEE5clearEv.exit unwind label %terminate.lpad.i.i

terminate.lpad.i.i:                               ; preds = %entry
  %1 = landingpad { ptr, i32 }
          catch ptr null
  %2 = extractvalue { ptr, i32 } %1, 0
  tail call void @__clang_call_terminate(ptr %2) #35
  unreachable

_ZNSt3mapIN5folly5RangeIPKcEES4_St4lessIS4_ESaISt4pairIKS4_S4_EEE5clearEv.exit: ; preds = %entry
  %add.ptr.i.i = getelementptr inbounds i8, ptr %this, i64 392
  store ptr null, ptr %_M_parent.i.i.i.i, align 8
  %_M_left.i.i.i = getelementptr inbounds i8, ptr %this, i64 408
  store ptr %add.ptr.i.i, ptr %_M_left.i.i.i, align 8
  %_M_right.i.i.i = getelementptr inbounds i8, ptr %this, i64 416
  store ptr %add.ptr.i.i, ptr %_M_right.i.i.i, align 8
  %_M_node_count.i.i.i = getelementptr inbounds i8, ptr %this, i64 424
  store i64 0, ptr %_M_node_count.i.i.i, align 8
  %parsedCookies_ = getelementptr inbounds i8, ptr %this, i64 610
  %bf.load = load i8, ptr %parsedCookies_, align 2
  %bf.clear = and i8 %bf.load, -2
  store i8 %bf.clear, ptr %parsedCookies_, align 2
  ret void
}